ccopy_reg
_reconstructor
p0
(cnetworkx.classes.graph
Graph
p1
c__builtin__
object
p2
Ntp3
Rp4
(dp5
S'node'
p6
(dp7
S'a'
p8
(dp9
S'pos'
p10
(I91
I492
tp11
ssS'c'
p12
(dp13
g10
(I253
I288
tp14
ssS'b'
p15
(dp16
g10
(I400
I327
tp17
ssS'e'
p18
(dp19
g10
(I562
I293
tp20
ssS'd'
p21
(dp22
g10
(I165
I299
tp23
ssS'g'
p24
(dp25
g10
(I375
I270
tp26
ssS'f'
p27
(dp28
g10
(I305
I449
tp29
ssS'i'
p30
(dp31
g10
(I473
I506
tp32
ssS'h'
p33
(dp34
g10
(I534
I350
tp35
ssS'm'
p36
(dp37
g10
(I168
I339
tp38
ssS'l'
p39
(dp40
g10
(I165
I379
tp41
ssS'o'
p42
(dp43
g10
(I131
I571
tp44
ssS'n'
p45
(dp46
g10
(I406
I537
tp47
ssS'p'
p48
(dp49
g10
(I320
I368
tp50
ssS's'
p51
(dp52
g10
(I207
I457
tp53
ssS'r'
p54
(dp55
g10
(I233
I410
tp56
ssS'u'
p57
(dp58
g10
(I456
I350
tp59
ssS't'
p60
(dp61
g10
(I94
I410
tp62
ssS'v'
p63
(dp64
g10
(I509
I444
tp65
ssS'z'
p66
(dp67
g10
(I108
I531
tp68
sssS'node_dict_factory'
p69
c__builtin__
dict
p70
sS'edge_attr_dict_factory'
p71
g70
sS'edge'
p72
(dp73
g8
(dp74
g51
(dp75
S'weight'
p76
I140
ssg66
(dp77
g76
I75
ssg60
(dp78
g76
I118
sssg12
(dp79
g48
(dp80
g76
I138
ssg54
(dp81
g76
I146
ssg21
(dp82
g76
I120
sssg15
(dp83
g48
(dp84
g76
I101
ssg57
(dp85
g76
I85
ssg24
(dp86
g76
I90
ssg27
(dp87
g76
I211
sssg18
(dp88
g33
(dp89
g76
I86
sssg21
(dp90
g12
g82
sg36
(dp91
g76
I75
sssg24
(dp92
g15
g86
ssg27
(dp93
g51
(dp94
g76
I99
ssg15
g87
ssg30
(dp95
g45
(dp96
g76
I87
ssg63
(dp97
g76
I92
sssg33
(dp98
g57
(dp99
g76
I98
ssg18
g89
ssg36
(dp100
g21
g91
sg39
(dp101
g76
I70
sssg39
(dp102
g36
g101
sg60
(dp103
g76
I111
sssg42
(dp104
g51
(dp105
g76
I151
ssg66
(dp106
g76
I71
sssg45
(dp107
g30
g96
ssg48
(dp108
g12
g80
sg15
g84
sg54
(dp109
g76
I97
sssg51
(dp110
g8
g75
sg54
(dp111
g76
I80
ssg42
g105
sg27
g94
ssg54
(dp112
g48
g109
sg12
g81
sg51
g111
ssg57
(dp113
g33
g99
sg15
g85
sg63
(dp114
g76
I142
sssg60
(dp115
g8
g78
sg39
g103
ssg63
(dp116
g30
g97
sg57
g114
ssg66
(dp117
g8
g77
sg42
g106
sssS'graph'
p118
(dp119
sS'adjlist_dict_factory'
p120
g70
sS'explored_nodes'
p121
c__builtin__
set
p122
((lp123
g8
ag12
ag15
ag18
ag21
ag24
ag27
ag30
ag33
ag36
ag39
ag42
ag45
ag48
ag51
ag54
ag57
ag60
ag63
ag66
atp124
Rp125
sS'adj'
p126
g73
sb.